; Function Attrs: mustprogress nofree norecurse nosync nounwind memory(readwrite, inaccessiblemem: none) uwtable
define internal void @_ZN12_GLOBAL__N_121BytecodeFormConverterILN6hermes3hbc12BytecodeFormE0EE26processOverflowStringTableEv(ptr nocapture noundef nonnull readonly align 8 dereferenceable(288) %this) #12 align 2 {
entry:
  %stringTableOverflowEntries = getelementptr inbounds i8, ptr %this, i64 88
  %0 = load ptr, ptr %stringTableOverflowEntries, align 8
  %Length.i.i = getelementptr inbounds i8, ptr %this, i64 96
  %1 = load i64, ptr %Length.i.i, align 8
  %add.ptr.i = getelementptr inbounds %"struct.hermes::hbc::OverflowStringTableEntry", ptr %0, i64 %1
  %cmp.not5 = icmp eq i64 %1, 0
  br i1 %cmp.not5, label %for.end, label %for.body

for.body:                                         ; preds = %entry, %for.body
  %__begin2.07 = phi ptr [ %incdec.ptr, %for.body ], [ %0, %entry ]
  %offsetAdj.sroa.0.06 = phi i32 [ %add.i, %for.body ], [ 0, %entry ]
  %2 = load i32, ptr %__begin2.07, align 1
  %add.i = add i32 %2, %offsetAdj.sroa.0.06
  store i32 %add.i, ptr %__begin2.07, align 1
  %incdec.ptr = getelementptr inbounds i8, ptr %__begin2.07, i64 8
  %cmp.not = icmp eq ptr %incdec.ptr, %add.ptr.i
  br i1 %cmp.not, label %for.end, label %for.body

for.end:                                          ; preds = %for.body, %entry
  ret void
}